target datalayout = "e-m:e-p270:32:32-p271:32:32-p272:64:64-i64:64-i128:128-f80:128-n8:16:32:64-S128"
target triple = "x86_64-pc-linux-gnu"

%struct.dtNode = type { [3 x float], float, float, i32, i32 }
%class.dtNavMeshQuery = type { ptr, %"struct.dtNavMeshQuery::dtQueryData", ptr, ptr, ptr }
%"struct.dtNavMeshQuery::dtQueryData" = type { i32, ptr, float, i32, i32, [3 x float], [3 x float], ptr, i32, float }
%class.dtNodePool = type <{ ptr, ptr, ptr, i32, i32, i32, [4 x i8] }>

; Function Attrs: mustprogress nounwind uwtable
define linkonce_odr noundef zeroext i16 @_ZNK10dtNodePool7getNextEi(ptr noundef nonnull align 8 dereferenceable(36) %0, i32 noundef %1) #2 comdat align 2 {
  %3 = alloca ptr, align 8
  %4 = alloca i32, align 4
  store ptr %0, ptr %3, align 8
  store i32 %1, ptr %4, align 4
  %5 = load ptr, ptr %3, align 8
  %6 = getelementptr inbounds %class.dtNodePool, ptr %5, i32 0, i32 2
  %7 = load ptr, ptr %6, align 8
  %8 = load i32, ptr %4, align 4
  %9 = sext i32 %8 to i64
  %10 = getelementptr inbounds i16, ptr %7, i64 %9
  %11 = load i16, ptr %10, align 2
  ret i16 %11
}

; Function Attrs: mustprogress nounwind uwtable
define linkonce_odr noundef i32 @_Z6duRGBAiiii(i32 noundef %0, i32 noundef %1, i32 noundef %2, i32 noundef %3) #2 comdat {
  %5 = alloca i32, align 4
  %6 = alloca i32, align 4
  %7 = alloca i32, align 4
  %8 = alloca i32, align 4
  store i32 %0, ptr %5, align 4
  store i32 %1, ptr %6, align 4
  store i32 %2, ptr %7, align 4
  store i32 %3, ptr %8, align 4
  %9 = load i32, ptr %5, align 4
  %10 = load i32, ptr %6, align 4
  %11 = shl i32 %10, 8
  %12 = or i32 %9, %11
  %13 = load i32, ptr %7, align 4
  %14 = shl i32 %13, 16
  %15 = or i32 %12, %14
  %16 = load i32, ptr %8, align 4
  %17 = shl i32 %16, 24
  %18 = or i32 %15, %17
  ret i32 %18
}

; Function Attrs: mustprogress nounwind uwtable
define linkonce_odr noundef ptr @_ZNK10dtNodePool12getNodeAtIdxEj(ptr noundef nonnull align 8 dereferenceable(36) %0, i32 noundef %1) #2 comdat align 2 {
  %3 = alloca ptr, align 8
  %4 = alloca ptr, align 8
  %5 = alloca i32, align 4
  store ptr %0, ptr %4, align 8
  store i32 %1, ptr %5, align 4
  %6 = load ptr, ptr %4, align 8
  %7 = load i32, ptr %5, align 4
  %8 = icmp ne i32 %7, 0
  br i1 %8, label %10, label %9

9:                                                ; preds = %2
  store ptr null, ptr %3, align 8
  br label %17

10:                                               ; preds = %2
  %11 = getelementptr inbounds %class.dtNodePool, ptr %6, i32 0, i32 0
  %12 = load ptr, ptr %11, align 8
  %13 = load i32, ptr %5, align 4
  %14 = sub i32 %13, 1
  %15 = zext i32 %14 to i64
  %16 = getelementptr inbounds %struct.dtNode, ptr %12, i64 %15
  store ptr %16, ptr %3, align 8
  br label %17

17:                                               ; preds = %10, %9
  %18 = load ptr, ptr %3, align 8
  ret ptr %18
}

; Function Attrs: mustprogress nounwind uwtable
define linkonce_odr noundef zeroext i16 @_ZNK10dtNodePool8getFirstEi(ptr noundef nonnull align 8 dereferenceable(36) %0, i32 noundef %1) #2 comdat align 2 {
  %3 = alloca ptr, align 8
  %4 = alloca i32, align 4
  store ptr %0, ptr %3, align 8
  store i32 %1, ptr %4, align 4
  %5 = load ptr, ptr %3, align 8
  %6 = getelementptr inbounds %class.dtNodePool, ptr %5, i32 0, i32 1
  %7 = load ptr, ptr %6, align 8
  %8 = load i32, ptr %4, align 4
  %9 = sext i32 %8 to i64
  %10 = getelementptr inbounds i16, ptr %7, i64 %9
  %11 = load i16, ptr %10, align 2
  ret i16 %11
}

; Function Attrs: mustprogress nounwind uwtable
define linkonce_odr noundef i32 @_ZNK10dtNodePool11getHashSizeEv(ptr noundef nonnull align 8 dereferenceable(36) %0) #2 comdat align 2 {
  %2 = alloca ptr, align 8
  store ptr %0, ptr %2, align 8
  %3 = load ptr, ptr %2, align 8
  %4 = getelementptr inbounds %class.dtNodePool, ptr %3, i32 0, i32 4
  %5 = load i32, ptr %4, align 4
  ret i32 %5
}

; Function Attrs: mustprogress nounwind uwtable
define linkonce_odr noundef ptr @_ZNK14dtNavMeshQuery11getNodePoolEv(ptr noundef nonnull align 8 dereferenceable(104) %0) #2 comdat align 2 {
  %2 = alloca ptr, align 8
  store ptr %0, ptr %2, align 8
  %3 = load ptr, ptr %2, align 8
  %4 = getelementptr inbounds %class.dtNavMeshQuery, ptr %3, i32 0, i32 3
  %5 = load ptr, ptr %4, align 8
  ret ptr %5
}

; Function Attrs: mustprogress uwtable
define void @_Z23duDebugDrawNavMeshNodesP11duDebugDrawRK14dtNavMeshQuery(ptr noundef %0, ptr noundef nonnull align 8 dereferenceable(104) %1) #0 {
  %3 = alloca ptr, align 8
  %4 = alloca ptr, align 8
  %5 = alloca ptr, align 8
  %6 = alloca float, align 4
  %7 = alloca i32, align 4
  %8 = alloca i16, align 2
  %9 = alloca ptr, align 8
  %10 = alloca i32, align 4
  %11 = alloca i16, align 2
  %12 = alloca ptr, align 8
  %13 = alloca ptr, align 8
  store ptr %0, ptr %3, align 8
  store ptr %1, ptr %4, align 8
  %14 = load ptr, ptr %3, align 8
  %15 = icmp ne ptr %14, null
  br i1 %15, label %17, label %16

16:                                               ; preds = %2
  br label %176

17:                                               ; preds = %2
  %18 = load ptr, ptr %4, align 8
  %19 = call noundef ptr @_ZNK14dtNavMeshQuery11getNodePoolEv(ptr noundef nonnull align 8 dereferenceable(104) %18)
  store ptr %19, ptr %5, align 8
  %20 = load ptr, ptr %5, align 8
  %21 = icmp ne ptr %20, null
  br i1 %21, label %22, label %176

22:                                               ; preds = %17
  store float 5.000000e-01, ptr %6, align 4
  %23 = load ptr, ptr %3, align 8
  %24 = load ptr, ptr %23, align 8
  %25 = getelementptr inbounds ptr, ptr %24, i64 4
  %26 = load ptr, ptr %25, align 8
  call void %26(ptr noundef nonnull align 8 dereferenceable(8) %23, i32 noundef 0, float noundef 4.000000e+00)
  store i32 0, ptr %7, align 4
  br label %27

27:                                               ; preds = %74, %22
  %28 = load i32, ptr %7, align 4
  %29 = load ptr, ptr %5, align 8
  %30 = call noundef i32 @_ZNK10dtNodePool11getHashSizeEv(ptr noundef nonnull align 8 dereferenceable(36) %29)
  %31 = icmp slt i32 %28, %30
  br i1 %31, label %32, label %77

32:                                               ; preds = %27
  %33 = load ptr, ptr %5, align 8
  %34 = load i32, ptr %7, align 4
  %35 = call noundef zeroext i16 @_ZNK10dtNodePool8getFirstEi(ptr noundef nonnull align 8 dereferenceable(36) %33, i32 noundef %34)
  store i16 %35, ptr %8, align 2
  br label %36

36:                                               ; preds = %68, %32
  %37 = load i16, ptr %8, align 2
  %38 = zext i16 %37 to i32
  %39 = icmp ne i32 %38, 65535
  br i1 %39, label %40, label %73

40:                                               ; preds = %36
  %41 = load ptr, ptr %5, align 8
  %42 = load i16, ptr %8, align 2
  %43 = zext i16 %42 to i32
  %44 = add nsw i32 %43, 1
  %45 = call noundef ptr @_ZNK10dtNodePool12getNodeAtIdxEj(ptr noundef nonnull align 8 dereferenceable(36) %41, i32 noundef %44)
  store ptr %45, ptr %9, align 8
  %46 = load ptr, ptr %9, align 8
  %47 = icmp ne ptr %46, null
  br i1 %47, label %49, label %48

48:                                               ; preds = %40
  br label %68

49:                                               ; preds = %40
  %50 = load ptr, ptr %3, align 8
  %51 = load ptr, ptr %9, align 8
  %52 = getelementptr inbounds %struct.dtNode, ptr %51, i32 0, i32 0
  %53 = getelementptr inbounds [3 x float], ptr %52, i64 0, i64 0
  %54 = load float, ptr %53, align 4
  %55 = load ptr, ptr %9, align 8
  %56 = getelementptr inbounds %struct.dtNode, ptr %55, i32 0, i32 0
  %57 = getelementptr inbounds [3 x float], ptr %56, i64 0, i64 1
  %58 = load float, ptr %57, align 4
  %59 = fadd float %58, 5.000000e-01
  %60 = load ptr, ptr %9, align 8
  %61 = getelementptr inbounds %struct.dtNode, ptr %60, i32 0, i32 0
  %62 = getelementptr inbounds [3 x float], ptr %61, i64 0, i64 2
  %63 = load float, ptr %62, align 4
  %64 = call noundef i32 @_Z6duRGBAiiii(i32 noundef 255, i32 noundef 192, i32 noundef 0, i32 noundef 255)
  %65 = load ptr, ptr %50, align 8
  %66 = getelementptr inbounds ptr, ptr %65, i64 6
  %67 = load ptr, ptr %66, align 8
  call void %67(ptr noundef nonnull align 8 dereferenceable(8) %50, float noundef %54, float noundef %59, float noundef %63, i32 noundef %64)
  br label %68

68:                                               ; preds = %49, %48
  %69 = load ptr, ptr %5, align 8
  %70 = load i16, ptr %8, align 2
  %71 = zext i16 %70 to i32
  %72 = call noundef zeroext i16 @_ZNK10dtNodePool7getNextEi(ptr noundef nonnull align 8 dereferenceable(36) %69, i32 noundef %71)
  store i16 %72, ptr %8, align 2
  br label %36, !llvm.loop !13

73:                                               ; preds = %36
  br label %74

74:                                               ; preds = %73
  %75 = load i32, ptr %7, align 4
  %76 = add nsw i32 %75, 1
  store i32 %76, ptr %7, align 4
  br label %27, !llvm.loop !14

77:                                               ; preds = %27
  %78 = load ptr, ptr %3, align 8
  %79 = load ptr, ptr %78, align 8
  %80 = getelementptr inbounds ptr, ptr %79, i64 9
  %81 = load ptr, ptr %80, align 8
  call void %81(ptr noundef nonnull align 8 dereferenceable(8) %78)
  %82 = load ptr, ptr %3, align 8
  %83 = load ptr, ptr %82, align 8
  %84 = getelementptr inbounds ptr, ptr %83, i64 4
  %85 = load ptr, ptr %84, align 8
  call void %85(ptr noundef nonnull align 8 dereferenceable(8) %82, i32 noundef 1, float noundef 2.000000e+00)
  store i32 0, ptr %10, align 4
  br label %86

86:                                               ; preds = %168, %77
  %87 = load i32, ptr %10, align 4
  %88 = load ptr, ptr %5, align 8
  %89 = call noundef i32 @_ZNK10dtNodePool11getHashSizeEv(ptr noundef nonnull align 8 dereferenceable(36) %88)
  %90 = icmp slt i32 %87, %89
  br i1 %90, label %91, label %171

91:                                               ; preds = %86
  %92 = load ptr, ptr %5, align 8
  %93 = load i32, ptr %10, align 4
  %94 = call noundef zeroext i16 @_ZNK10dtNodePool8getFirstEi(ptr noundef nonnull align 8 dereferenceable(36) %92, i32 noundef %93)
  store i16 %94, ptr %11, align 2
  br label %95

95:                                               ; preds = %162, %91
  %96 = load i16, ptr %11, align 2
  %97 = zext i16 %96 to i32
  %98 = icmp ne i32 %97, 65535
  br i1 %98, label %99, label %167

99:                                               ; preds = %95
  %100 = load ptr, ptr %5, align 8
  %101 = load i16, ptr %11, align 2
  %102 = zext i16 %101 to i32
  %103 = add nsw i32 %102, 1
  %104 = call noundef ptr @_ZNK10dtNodePool12getNodeAtIdxEj(ptr noundef nonnull align 8 dereferenceable(36) %100, i32 noundef %103)
  store ptr %104, ptr %12, align 8
  %105 = load ptr, ptr %12, align 8
  %106 = icmp ne ptr %105, null
  br i1 %106, label %108, label %107

107:                                              ; preds = %99
  br label %162

108:                                              ; preds = %99
  %109 = load ptr, ptr %12, align 8
  %110 = getelementptr inbounds %struct.dtNode, ptr %109, i32 0, i32 3
  %111 = load i32, ptr %110, align 4
  %112 = and i32 %111, 16777215
  %113 = icmp ne i32 %112, 0
  br i1 %113, label %115, label %114

114:                                              ; preds = %108
  br label %162

115:                                              ; preds = %108
  %116 = load ptr, ptr %5, align 8
  %117 = load ptr, ptr %12, align 8
  %118 = getelementptr inbounds %struct.dtNode, ptr %117, i32 0, i32 3
  %119 = load i32, ptr %118, align 4
  %120 = and i32 %119, 16777215
  %121 = call noundef ptr @_ZNK10dtNodePool12getNodeAtIdxEj(ptr noundef nonnull align 8 dereferenceable(36) %116, i32 noundef %120)
  store ptr %121, ptr %13, align 8
  %122 = load ptr, ptr %13, align 8
  %123 = icmp ne ptr %122, null
  br i1 %123, label %125, label %124

124:                                              ; preds = %115
  br label %162

125:                                              ; preds = %115
  %126 = load ptr, ptr %3, align 8
  %127 = load ptr, ptr %12, align 8
  %128 = getelementptr inbounds %struct.dtNode, ptr %127, i32 0, i32 0
  %129 = getelementptr inbounds [3 x float], ptr %128, i64 0, i64 0
  %130 = load float, ptr %129, align 4
  %131 = load ptr, ptr %12, align 8
  %132 = getelementptr inbounds %struct.dtNode, ptr %131, i32 0, i32 0
  %133 = getelementptr inbounds [3 x float], ptr %132, i64 0, i64 1
  %134 = load float, ptr %133, align 4
  %135 = fadd float %134, 5.000000e-01
  %136 = load ptr, ptr %12, align 8
  %137 = getelementptr inbounds %struct.dtNode, ptr %136, i32 0, i32 0
  %138 = getelementptr inbounds [3 x float], ptr %137, i64 0, i64 2
  %139 = load float, ptr %138, align 4
  %140 = call noundef i32 @_Z6duRGBAiiii(i32 noundef 255, i32 noundef 192, i32 noundef 0, i32 noundef 128)
  %141 = load ptr, ptr %126, align 8
  %142 = getelementptr inbounds ptr, ptr %141, i64 6
  %143 = load ptr, ptr %142, align 8
  call void %143(ptr noundef nonnull align 8 dereferenceable(8) %126, float noundef %130, float noundef %135, float noundef %139, i32 noundef %140)
  %144 = load ptr, ptr %3, align 8
  %145 = load ptr, ptr %13, align 8
  %146 = getelementptr inbounds %struct.dtNode, ptr %145, i32 0, i32 0
  %147 = getelementptr inbounds [3 x float], ptr %146, i64 0, i64 0
  %148 = load float, ptr %147, align 4
  %149 = load ptr, ptr %13, align 8
  %150 = getelementptr inbounds %struct.dtNode, ptr %149, i32 0, i32 0
  %151 = getelementptr inbounds [3 x float], ptr %150, i64 0, i64 1
  %152 = load float, ptr %151, align 4
  %153 = fadd float %152, 5.000000e-01
  %154 = load ptr, ptr %13, align 8
  %155 = getelementptr inbounds %struct.dtNode, ptr %154, i32 0, i32 0
  %156 = getelementptr inbounds [3 x float], ptr %155, i64 0, i64 2
  %157 = load float, ptr %156, align 4
  %158 = call noundef i32 @_Z6duRGBAiiii(i32 noundef 255, i32 noundef 192, i32 noundef 0, i32 noundef 128)
  %159 = load ptr, ptr %144, align 8
  %160 = getelementptr inbounds ptr, ptr %159, i64 6
  %161 = load ptr, ptr %160, align 8
  call void %161(ptr noundef nonnull align 8 dereferenceable(8) %144, float noundef %148, float noundef %153, float noundef %157, i32 noundef %158)
  br label %162

162:                                              ; preds = %125, %124, %114, %107
  %163 = load ptr, ptr %5, align 8
  %164 = load i16, ptr %11, align 2
  %165 = zext i16 %164 to i32
  %166 = call noundef zeroext i16 @_ZNK10dtNodePool7getNextEi(ptr noundef nonnull align 8 dereferenceable(36) %163, i32 noundef %165)
  store i16 %166, ptr %11, align 2
  br label %95, !llvm.loop !15

167:                                              ; preds = %95
  br label %168

168:                                              ; preds = %167
  %169 = load i32, ptr %10, align 4
  %170 = add nsw i32 %169, 1
  store i32 %170, ptr %10, align 4
  br label %86, !llvm.loop !16

171:                                              ; preds = %86
  %172 = load ptr, ptr %3, align 8
  %173 = load ptr, ptr %172, align 8
  %174 = getelementptr inbounds ptr, ptr %173, i64 9
  %175 = load ptr, ptr %174, align 8
  call void %175(ptr noundef nonnull align 8 dereferenceable(8) %172)
  br label %176

176:                                              ; preds = %171, %17, %16
  ret void
}