; Function Attrs: mustprogress uwtable
define void @_Z23duDebugDrawNavMeshNodesP11duDebugDrawRK14dtNavMeshQuery(ptr noundef %0, ptr noundef nonnull readonly align 8 captures(none) dereferenceable(104) %1) local_unnamed_addr #0 {
  %.not = icmp eq ptr %0, null
  br i1 %.not, label %93, label %3

3:                                                ; preds = %2
  %4 = getelementptr inbounds nuw i8, ptr %1, i64 88
  %5 = load ptr, ptr %4, align 8
  %.not55 = icmp eq ptr %5, null
  br i1 %.not55, label %93, label %6

6:                                                ; preds = %3
  %7 = load ptr, ptr %0, align 8
  %8 = getelementptr inbounds nuw i8, ptr %7, i64 32
  %9 = load ptr, ptr %8, align 8
  tail call void %9(ptr noundef nonnull align 8 dereferenceable(8) %0, i32 noundef 0, float noundef 4.000000e+00)
  %10 = getelementptr inbounds nuw i8, ptr %5, i64 28
  %11 = load i32, ptr %10, align 4
  %12 = icmp sgt i32 %11, 0
  br i1 %12, label %.lr.ph67, label %._crit_edge68

.lr.ph67:                                         ; preds = %6
  %13 = getelementptr inbounds nuw i8, ptr %5, i64 8
  %14 = getelementptr inbounds nuw i8, ptr %5, i64 16
  br label %15

15:                                               ; preds = %.lr.ph67, %._crit_edge
  %16 = phi i32 [ %11, %.lr.ph67 ], [ %35, %._crit_edge ]
  %indvars.iv = phi i64 [ 0, %.lr.ph67 ], [ %indvars.iv.next, %._crit_edge ]
  %17 = load ptr, ptr %13, align 8
  %18 = getelementptr inbounds nuw i16, ptr %17, i64 %indvars.iv
  %.04462 = load i16, ptr %18, align 2
  %.not6063 = icmp eq i16 %.04462, -1
  br i1 %.not6063, label %._crit_edge, label %.lr.ph

.lr.ph:                                           ; preds = %15
  %19 = load ptr, ptr %5, align 8
  %20 = icmp eq ptr %19, null
  br i1 %20, label %._crit_edge, label %.lr.ph.split

.lr.ph.splitthread-pre-split:                     ; preds = %.lr.ph.split._crit_edge
  %.pr = load ptr, ptr %5, align 8
  br label %.lr.ph.split

.lr.ph.split:                                     ; preds = %.lr.ph, %.lr.ph.splitthread-pre-split
  %21 = phi ptr [ %.pr, %.lr.ph.splitthread-pre-split ], [ %19, %.lr.ph ]
  %.04464 = phi i16 [ %.044, %.lr.ph.splitthread-pre-split ], [ %.04462, %.lr.ph ]
  %.not61 = icmp eq ptr %21, null
  %.pre86 = zext i16 %.04464 to i64
  br i1 %.not61, label %.lr.ph.split._crit_edge, label %22

22:                                               ; preds = %.lr.ph.split
  %23 = getelementptr inbounds nuw %struct.dtNode, ptr %21, i64 %.pre86
  %24 = load float, ptr %23, align 4
  %25 = getelementptr inbounds nuw i8, ptr %23, i64 4
  %26 = load float, ptr %25, align 4
  %27 = fadd float %26, 5.000000e-01
  %28 = getelementptr inbounds nuw i8, ptr %23, i64 8
  %29 = load float, ptr %28, align 4
  %30 = load ptr, ptr %0, align 8
  %31 = getelementptr inbounds nuw i8, ptr %30, i64 48
  %32 = load ptr, ptr %31, align 8
  tail call void %32(ptr noundef nonnull align 8 dereferenceable(8) %0, float noundef %24, float noundef %27, float noundef %29, i32 noundef -16727809)
  br label %.lr.ph.split._crit_edge

.lr.ph.split._crit_edge:                          ; preds = %.lr.ph.split, %22
  %33 = load ptr, ptr %14, align 8
  %34 = getelementptr inbounds nuw i16, ptr %33, i64 %.pre86
  %.044 = load i16, ptr %34, align 2
  %.not60 = icmp eq i16 %.044, -1
  br i1 %.not60, label %._crit_edge.loopexit80, label %.lr.ph.splitthread-pre-split, !llvm.loop !13

._crit_edge.loopexit80:                           ; preds = %.lr.ph.split._crit_edge
  %.pre = load i32, ptr %10, align 4
  br label %._crit_edge

._crit_edge:                                      ; preds = %.lr.ph, %._crit_edge.loopexit80, %15
  %35 = phi i32 [ %.pre, %._crit_edge.loopexit80 ], [ %16, %15 ], [ %16, %.lr.ph ]
  %indvars.iv.next = add nuw nsw i64 %indvars.iv, 1
  %36 = sext i32 %35 to i64
  %37 = icmp slt i64 %indvars.iv.next, %36
  br i1 %37, label %15, label %._crit_edge68, !llvm.loop !15

._crit_edge68:                                    ; preds = %._crit_edge, %6
  %38 = load ptr, ptr %0, align 8
  %39 = getelementptr inbounds nuw i8, ptr %38, i64 72
  %40 = load ptr, ptr %39, align 8
  tail call void %40(ptr noundef nonnull align 8 dereferenceable(8) %0)
  %41 = load ptr, ptr %0, align 8
  %42 = getelementptr inbounds nuw i8, ptr %41, i64 32
  %43 = load ptr, ptr %42, align 8
  tail call void %43(ptr noundef nonnull align 8 dereferenceable(8) %0, i32 noundef 1, float noundef 2.000000e+00)
  %44 = load i32, ptr %10, align 4
  %45 = icmp sgt i32 %44, 0
  br i1 %45, label %.lr.ph77, label %._crit_edge78

.lr.ph77:                                         ; preds = %._crit_edge68
  %46 = getelementptr inbounds nuw i8, ptr %5, i64 8
  %47 = getelementptr inbounds nuw i8, ptr %5, i64 16
  br label %48

48:                                               ; preds = %.lr.ph77, %._crit_edge74
  %49 = phi i32 [ %44, %.lr.ph77 ], [ %87, %._crit_edge74 ]
  %indvars.iv82 = phi i64 [ 0, %.lr.ph77 ], [ %indvars.iv.next83, %._crit_edge74 ]
  %50 = load ptr, ptr %46, align 8
  %51 = getelementptr inbounds nuw i16, ptr %50, i64 %indvars.iv82
  %.04569 = load i16, ptr %51, align 2
  %.not5670 = icmp eq i16 %.04569, -1
  br i1 %.not5670, label %._crit_edge74, label %.lr.ph73

.lr.ph73:                                         ; preds = %48
  %52 = load ptr, ptr %5, align 8
  %53 = icmp eq ptr %52, null
  br i1 %53, label %._crit_edge74, label %.lr.ph73.split

.lr.ph73.splitthread-pre-split:                   ; preds = %84
  %.pr87 = load ptr, ptr %5, align 8
  br label %.lr.ph73.split

.lr.ph73.split:                                   ; preds = %.lr.ph73, %.lr.ph73.splitthread-pre-split
  %54 = phi ptr [ %.pr87, %.lr.ph73.splitthread-pre-split ], [ %52, %.lr.ph73 ]
  %.04571 = phi i16 [ %.045, %.lr.ph73.splitthread-pre-split ], [ %.04569, %.lr.ph73 ]
  %55 = zext i16 %.04571 to i64
  %56 = getelementptr inbounds nuw %struct.dtNode, ptr %54, i64 %55
  %.not57 = icmp eq ptr %54, null
  br i1 %.not57, label %84, label %57

57:                                               ; preds = %.lr.ph73.split
  %58 = getelementptr inbounds nuw i8, ptr %56, i64 20
  %59 = load i32, ptr %58, align 4
  %60 = and i32 %59, 16777215
  %.not58 = icmp eq i32 %60, 0
  br i1 %.not58, label %84, label %61

61:                                               ; preds = %57
  %62 = zext nneg i32 %60 to i64
  %63 = getelementptr %struct.dtNode, ptr %54, i64 %62
  %64 = getelementptr i8, ptr %63, i64 -28
  %.not59 = icmp eq ptr %64, null
  br i1 %.not59, label %84, label %65

65:                                               ; preds = %61
  %66 = load float, ptr %56, align 4
  %67 = getelementptr inbounds nuw i8, ptr %56, i64 4
  %68 = load float, ptr %67, align 4
  %69 = fadd float %68, 5.000000e-01
  %70 = getelementptr inbounds nuw i8, ptr %56, i64 8
  %71 = load float, ptr %70, align 4
  %72 = load ptr, ptr %0, align 8
  %73 = getelementptr inbounds nuw i8, ptr %72, i64 48
  %74 = load ptr, ptr %73, align 8
  tail call void %74(ptr noundef nonnull align 8 dereferenceable(8) %0, float noundef %66, float noundef %69, float noundef %71, i32 noundef -2147434241)
  %75 = load float, ptr %64, align 4
  %76 = getelementptr i8, ptr %63, i64 -24
  %77 = load float, ptr %76, align 4
  %78 = fadd float %77, 5.000000e-01
  %79 = getelementptr i8, ptr %63, i64 -20
  %80 = load float, ptr %79, align 4
  %81 = load ptr, ptr %0, align 8
  %82 = getelementptr inbounds nuw i8, ptr %81, i64 48
  %83 = load ptr, ptr %82, align 8
  tail call void %83(ptr noundef nonnull align 8 dereferenceable(8) %0, float noundef %75, float noundef %78, float noundef %80, i32 noundef -2147434241)
  br label %84

84:                                               ; preds = %61, %57, %.lr.ph73.split, %65
  %85 = load ptr, ptr %47, align 8
  %86 = getelementptr inbounds nuw i16, ptr %85, i64 %55
  %.045 = load i16, ptr %86, align 2
  %.not56 = icmp eq i16 %.045, -1
  br i1 %.not56, label %._crit_edge74.loopexit79, label %.lr.ph73.splitthread-pre-split, !llvm.loop !16

._crit_edge74.loopexit79:                         ; preds = %84
  %.pre85 = load i32, ptr %10, align 4
  br label %._crit_edge74

._crit_edge74:                                    ; preds = %.lr.ph73, %._crit_edge74.loopexit79, %48
  %87 = phi i32 [ %.pre85, %._crit_edge74.loopexit79 ], [ %49, %48 ], [ %49, %.lr.ph73 ]
  %indvars.iv.next83 = add nuw nsw i64 %indvars.iv82, 1
  %88 = sext i32 %87 to i64
  %89 = icmp slt i64 %indvars.iv.next83, %88
  br i1 %89, label %48, label %._crit_edge78, !llvm.loop !17

._crit_edge78:                                    ; preds = %._crit_edge74, %._crit_edge68
  %90 = load ptr, ptr %0, align 8
  %91 = getelementptr inbounds nuw i8, ptr %90, i64 72
  %92 = load ptr, ptr %91, align 8
  tail call void %92(ptr noundef nonnull align 8 dereferenceable(8) %0)
  br label %93

93:                                               ; preds = %2, %._crit_edge78, %3
  ret void
}